; Function Attrs: mustprogress uwtable
define internal noundef nonnull ptr @_ZL16init_data_commoniP18gmx_ana_selparam_t(i32 %0, ptr nocapture noundef writeonly %1) #0 personality ptr @__gxx_personality_v0 {
  %3 = tail call noalias noundef nonnull dereferenceable(184) ptr @_Znwm(i64 noundef 184) #12
  store float -1.000000e+00, ptr %3, align 8
  %4 = getelementptr inbounds i8, ptr %3, i64 8
  invoke void @_ZN13gmx_ana_pos_tC1Ev(ptr noundef nonnull align 8 dereferenceable(148) %4)
          to label %.noexc unwind label %15

.noexc:                                           ; preds = %2
  %5 = getelementptr inbounds i8, ptr %3, i64 160
  invoke void @_ZN3gmx20AnalysisNeighborhoodC1Ev(ptr noundef nonnull align 8 dereferenceable(8) %5)
          to label %6 unwind label %8

6:                                                ; preds = %.noexc
  %7 = getelementptr inbounds i8, ptr %3, i64 168
  invoke void @_ZN3gmx26AnalysisNeighborhoodSearchC1Ev(ptr noundef nonnull align 8 dereferenceable(16) %7)
          to label %_ZN21t_methoddata_distanceC2Ev.exit unwind label %10

8:                                                ; preds = %.noexc
  %9 = landingpad { ptr, i32 }
          cleanup
  br label %12

10:                                               ; preds = %6
  %11 = landingpad { ptr, i32 }
          cleanup
  tail call void @_ZN3gmx20AnalysisNeighborhoodD1Ev(ptr noundef nonnull align 8 dereferenceable(8) %5) #13
  br label %12

12:                                               ; preds = %10, %8
  %.pn.i = phi { ptr, i32 } [ %11, %10 ], [ %9, %8 ]
  tail call void @_ZN13gmx_ana_pos_tD1Ev(ptr noundef nonnull align 8 dereferenceable(148) %4) #13
  br label %.body

_ZN21t_methoddata_distanceC2Ev.exit:              ; preds = %6
  %13 = getelementptr inbounds i8, ptr %1, i64 16
  store ptr %3, ptr %13, align 8
  %14 = getelementptr inbounds i8, ptr %1, i64 64
  store ptr %4, ptr %14, align 8
  ret ptr %3

15:                                               ; preds = %2
  %16 = landingpad { ptr, i32 }
          cleanup
  br label %.body

.body:                                            ; preds = %12, %15
  %eh.lpad-body = phi { ptr, i32 } [ %16, %15 ], [ %.pn.i, %12 ]
  tail call void @_ZdlPv(ptr noundef nonnull %3) #14
  resume { ptr, i32 } %eh.lpad-body
}